; Function Attrs: mustprogress nofree norecurse nosync nounwind willreturn memory(argmem: read) uwtable
define range(i32 0, 3) i32 @evp_pkey_ctx_state(ptr noundef readonly captures(none) %0) local_unnamed_addr #3 {
  %2 = load i32, ptr %0, align 8, !tbaa !15
  %3 = icmp eq i32 %2, 0
  br i1 %3, label %30, label %4

4:                                                ; preds = %1
  %5 = and i32 %2, 2048
  %.not = icmp eq i32 %5, 0
  br i1 %.not, label %9, label %6

6:                                                ; preds = %4
  %7 = getelementptr inbounds nuw i8, ptr %0, i64 48
  %8 = load ptr, ptr %7, align 8, !tbaa !26
  %.not12 = icmp eq ptr %8, null
  br i1 %.not12, label %9, label %30

9:                                                ; preds = %6, %4
  %10 = and i32 %2, 49648
  %.not13 = icmp eq i32 %10, 0
  br i1 %.not13, label %14, label %11

11:                                               ; preds = %9
  %12 = getelementptr inbounds nuw i8, ptr %0, i64 48
  %13 = load ptr, ptr %12, align 8, !tbaa !26
  %.not14 = icmp eq ptr %13, null
  br i1 %.not14, label %14, label %30

14:                                               ; preds = %11, %9
  %15 = and i32 %2, 1536
  %.not15 = icmp eq i32 %15, 0
  br i1 %.not15, label %19, label %16

16:                                               ; preds = %14
  %17 = getelementptr inbounds nuw i8, ptr %0, i64 48
  %18 = load ptr, ptr %17, align 8, !tbaa !26
  %.not16 = icmp eq ptr %18, null
  br i1 %.not16, label %19, label %30

19:                                               ; preds = %16, %14
  %20 = and i32 %2, 6
  %.not17 = icmp eq i32 %20, 0
  br i1 %.not17, label %24, label %21

21:                                               ; preds = %19
  %22 = getelementptr inbounds nuw i8, ptr %0, i64 40
  %23 = load ptr, ptr %22, align 8, !tbaa !26
  %.not18 = icmp eq ptr %23, null
  br i1 %.not18, label %24, label %30

24:                                               ; preds = %21, %19
  %25 = and i32 %2, 12288
  %.not19 = icmp eq i32 %25, 0
  br i1 %.not19, label %29, label %26

26:                                               ; preds = %24
  %27 = getelementptr inbounds nuw i8, ptr %0, i64 48
  %28 = load ptr, ptr %27, align 8, !tbaa !26
  %.not20 = icmp eq ptr %28, null
  br i1 %.not20, label %29, label %30

29:                                               ; preds = %26, %24
  br label %30

30:                                               ; preds = %6, %11, %16, %21, %26, %1, %29
  %.0 = phi i32 [ 1, %29 ], [ 0, %1 ], [ 2, %26 ], [ 2, %21 ], [ 2, %16 ], [ 2, %11 ], [ 2, %6 ]
  ret i32 %.0
}